target datalayout = "e-m:e-p270:32:32-p271:32:32-p272:64:64-i64:64-i128:128-f80:128-n8:16:32:64-S128"
target triple = "x86_64-pc-linux-gnu"

%struct.IDAMemRec = type { double, ptr, ptr, i32, double, double, ptr, i32, ptr, ptr, i32, ptr, ptr, i32, i32, double, double, ptr, i32, i32, i32, ptr, ptr, i32, ptr, ptr, ptr, i32, double, i32, i32, double, ptr, ptr, i32, ptr, ptr, i32, i32, i32, double, ptr, ptr, [6 x ptr], [6 x double], [6 x double], [6 x double], [6 x double], [6 x double], ptr, ptr, ptr, ptr, ptr, ptr, ptr, ptr, ptr, ptr, ptr, ptr, ptr, ptr, ptr, [6 x ptr], ptr, ptr, ptr, ptr, [6 x ptr], ptr, ptr, ptr, ptr, ptr, ptr, ptr, ptr, ptr, ptr, ptr, ptr, ptr, ptr, [6 x ptr], ptr, ptr, ptr, ptr, ptr, double, ptr, ptr, i32, i32, i32, i32, i32, i32, i32, double, double, double, i32, double, i32, i32, i32, i32, double, double, double, double, double, double, double, double, double, double, double, double, double, double, i32, i32, i32, i32, i32, i64, double, i32, i64, i64, i64, i64, i64, i64, i64, i64, i64, i64, i64, i64, i64, i64, i64, i64, i64, i64, i64, i64, i64, i64, i64, i64, ptr, ptr, ptr, i32, i32, i32, i32, i32, i32, i32, i32, i32, i32, i32, i32, i32, ptr, ptr, ptr, ptr, ptr, ptr, i32, i32, i32, i32, i32, i32, double, double, double, ptr, i32, ptr, ptr, double, double, double, ptr, ptr, ptr, double, double, i32, i32, i64, ptr, i32, i32, ptr, i32 }
%struct.IDASpilsMemRec = type { i32, i32, double, i32, i32, double, double, double, i64, i64, i64, i64, i64, i64, i64, i64, i64, i64, i64, i64, ptr, ptr, ptr, ptr, ptr, ptr, ptr, i64, ptr, ptr, ptr, ptr, i32, ptr, ptr }
%struct.IDAadjMemRec = type { double, double, i32, i32, double, ptr, i32, ptr, i32, ptr, ptr, i32, i64, ptr, i64, i32, ptr, ptr, ptr, ptr, i32, i32, i32, i32, i32, [6 x ptr], [6 x ptr], [6 x double], ptr, ptr, ptr, ptr, i64 }
%struct.IDABMemRec = type { i32, double, ptr, i32, i32, ptr, ptr, ptr, ptr, ptr, ptr, ptr, ptr, ptr, double, ptr, ptr, ptr }

@.str = private unnamed_addr constant [10 x i8] c"IDASSPILS\00", align 1
@.str.2 = private unnamed_addr constant [27 x i8] c"Integrator memory is NULL.\00", align 1
@.str.3 = private unnamed_addr constant [30 x i8] c"Linear solver memory is NULL.\00", align 1
@.str.4 = private unnamed_addr constant [33 x i8] c"Incompatible linear solver type.\00", align 1
@.str.8 = private unnamed_addr constant [16 x i8] c"IDASpilsSetMaxl\00", align 1
@.str.31 = private unnamed_addr constant [51 x i8] c"Illegal attempt to call before calling IDAAdjInit.\00", align 1
@.str.32 = private unnamed_addr constant [25 x i8] c"Illegal value for which.\00", align 1
@.str.35 = private unnamed_addr constant [17 x i8] c"IDASpilsSetMaxlB\00", align 1

; Function Attrs: nounwind uwtable
define i32 @IDASpilsSetMaxl(ptr noundef %0, i32 noundef %1) #0 {
  %3 = alloca i32, align 4
  %4 = alloca ptr, align 8
  %5 = alloca i32, align 4
  %6 = alloca ptr, align 8
  %7 = alloca ptr, align 8
  %8 = alloca i32, align 4
  store ptr %0, ptr %4, align 8, !tbaa !3
  store i32 %1, ptr %5, align 4, !tbaa !7
  call void @llvm.lifetime.start.p0(i64 8, ptr %6) #5
  call void @llvm.lifetime.start.p0(i64 8, ptr %7) #5
  %9 = load ptr, ptr %4, align 8, !tbaa !3
  %10 = icmp eq ptr %9, null
  br i1 %10, label %11, label %12

11:                                               ; preds = %2
  call void (ptr, i32, ptr, ptr, ptr, ...) @IDAProcessError(ptr noundef null, i32 noundef -1, ptr noundef @.str, ptr noundef @.str.8, ptr noundef @.str.2)
  store i32 -1, ptr %3, align 4
  store i32 1, ptr %8, align 4
  br label %40

12:                                               ; preds = %2
  %13 = load ptr, ptr %4, align 8, !tbaa !3
  store ptr %13, ptr %6, align 8, !tbaa !9
  %14 = load ptr, ptr %6, align 8, !tbaa !9
  %15 = getelementptr inbounds nuw %struct.IDAMemRec, ptr %14, i32 0, i32 176
  %16 = load ptr, ptr %15, align 8, !tbaa !11
  %17 = icmp eq ptr %16, null
  br i1 %17, label %18, label %20

18:                                               ; preds = %12
  %19 = load ptr, ptr %6, align 8, !tbaa !9
  call void (ptr, i32, ptr, ptr, ptr, ...) @IDAProcessError(ptr noundef %19, i32 noundef -2, ptr noundef @.str, ptr noundef @.str.8, ptr noundef @.str.3)
  store i32 -2, ptr %3, align 4
  store i32 1, ptr %8, align 4
  br label %40

20:                                               ; preds = %12
  %21 = load ptr, ptr %6, align 8, !tbaa !9
  %22 = getelementptr inbounds nuw %struct.IDAMemRec, ptr %21, i32 0, i32 176
  %23 = load ptr, ptr %22, align 8, !tbaa !11
  store ptr %23, ptr %7, align 8, !tbaa !21
  %24 = load ptr, ptr %7, align 8, !tbaa !21
  %25 = getelementptr inbounds nuw %struct.IDASpilsMemRec, ptr %24, i32 0, i32 0
  %26 = load i32, ptr %25, align 8, !tbaa !23
  %27 = icmp eq i32 %26, 1
  br i1 %27, label %28, label %30

28:                                               ; preds = %20
  %29 = load ptr, ptr %6, align 8, !tbaa !9
  call void (ptr, i32, ptr, ptr, ptr, ...) @IDAProcessError(ptr noundef %29, i32 noundef -3, ptr noundef @.str, ptr noundef @.str.8, ptr noundef @.str.4)
  store i32 -3, ptr %3, align 4
  store i32 1, ptr %8, align 4
  br label %40

30:                                               ; preds = %20
  %31 = load i32, ptr %5, align 4, !tbaa !7
  %32 = icmp sle i32 %31, 0
  br i1 %32, label %33, label %34

33:                                               ; preds = %30
  br label %36

34:                                               ; preds = %30
  %35 = load i32, ptr %5, align 4, !tbaa !7
  br label %36

36:                                               ; preds = %34, %33
  %37 = phi i32 [ 5, %33 ], [ %35, %34 ]
  %38 = load ptr, ptr %7, align 8, !tbaa !21
  %39 = getelementptr inbounds nuw %struct.IDASpilsMemRec, ptr %38, i32 0, i32 3
  store i32 %37, ptr %39, align 8, !tbaa !27
  store i32 0, ptr %3, align 4
  store i32 1, ptr %8, align 4
  br label %40

40:                                               ; preds = %36, %28, %18, %11
  call void @llvm.lifetime.end.p0(i64 8, ptr %7) #5
  call void @llvm.lifetime.end.p0(i64 8, ptr %6) #5
  %41 = load i32, ptr %3, align 4
  ret i32 %41
}

; Function Attrs: nounwind uwtable
define i32 @IDASpilsSetMaxlB(ptr noundef %0, i32 noundef %1, i32 noundef %2) #0 {
  %4 = alloca i32, align 4
  %5 = alloca ptr, align 8
  %6 = alloca i32, align 4
  %7 = alloca i32, align 4
  %8 = alloca ptr, align 8
  %9 = alloca ptr, align 8
  %10 = alloca ptr, align 8
  %11 = alloca ptr, align 8
  %12 = alloca i32, align 4
  store ptr %0, ptr %5, align 8, !tbaa !3
  store i32 %1, ptr %6, align 4, !tbaa !7
  store i32 %2, ptr %7, align 4, !tbaa !7
  call void @llvm.lifetime.start.p0(i64 8, ptr %8) #5
  call void @llvm.lifetime.start.p0(i64 8, ptr %9) #5
  call void @llvm.lifetime.start.p0(i64 8, ptr %10) #5
  call void @llvm.lifetime.start.p0(i64 8, ptr %11) #5
  %13 = load ptr, ptr %5, align 8, !tbaa !3
  %14 = icmp eq ptr %13, null
  br i1 %14, label %15, label %16

15:                                               ; preds = %3
  call void (ptr, i32, ptr, ptr, ptr, ...) @IDAProcessError(ptr noundef null, i32 noundef -1, ptr noundef @.str, ptr noundef @.str.35, ptr noundef @.str.2)
  store i32 -1, ptr %4, align 4
  store i32 1, ptr %12, align 4
  br label %60

16:                                               ; preds = %3
  %17 = load ptr, ptr %5, align 8, !tbaa !3
  store ptr %17, ptr %9, align 8, !tbaa !9
  %18 = load ptr, ptr %9, align 8, !tbaa !9
  %19 = getelementptr inbounds nuw %struct.IDAMemRec, ptr %18, i32 0, i32 205
  %20 = load i32, ptr %19, align 8, !tbaa !66
  %21 = icmp eq i32 %20, 0
  br i1 %21, label %22, label %24

22:                                               ; preds = %16
  %23 = load ptr, ptr %9, align 8, !tbaa !9
  call void (ptr, i32, ptr, ptr, ptr, ...) @IDAProcessError(ptr noundef %23, i32 noundef -101, ptr noundef @.str, ptr noundef @.str.35, ptr noundef @.str.31)
  store i32 -101, ptr %4, align 4
  store i32 1, ptr %12, align 4
  br label %60

24:                                               ; preds = %16
  %25 = load ptr, ptr %9, align 8, !tbaa !9
  %26 = getelementptr inbounds nuw %struct.IDAMemRec, ptr %25, i32 0, i32 204
  %27 = load ptr, ptr %26, align 8, !tbaa !67
  store ptr %27, ptr %8, align 8, !tbaa !68
  %28 = load i32, ptr %6, align 4, !tbaa !7
  %29 = load ptr, ptr %8, align 8, !tbaa !68
  %30 = getelementptr inbounds nuw %struct.IDAadjMemRec, ptr %29, i32 0, i32 6
  %31 = load i32, ptr %30, align 8, !tbaa !69
  %32 = icmp sge i32 %28, %31
  br i1 %32, label %33, label %35

33:                                               ; preds = %24
  %34 = load ptr, ptr %9, align 8, !tbaa !9
  call void (ptr, i32, ptr, ptr, ptr, ...) @IDAProcessError(ptr noundef %34, i32 noundef -3, ptr noundef @.str, ptr noundef @.str.35, ptr noundef @.str.32)
  store i32 -3, ptr %4, align 4
  store i32 1, ptr %12, align 4
  br label %60

35:                                               ; preds = %24
  %36 = load ptr, ptr %8, align 8, !tbaa !68
  %37 = getelementptr inbounds nuw %struct.IDAadjMemRec, ptr %36, i32 0, i32 5
  %38 = load ptr, ptr %37, align 8, !tbaa !74
  store ptr %38, ptr %10, align 8, !tbaa !75
  br label %39

39:                                               ; preds = %49, %35
  %40 = load ptr, ptr %10, align 8, !tbaa !75
  %41 = icmp ne ptr %40, null
  br i1 %41, label %42, label %53

42:                                               ; preds = %39
  %43 = load i32, ptr %6, align 4, !tbaa !7
  %44 = load ptr, ptr %10, align 8, !tbaa !75
  %45 = getelementptr inbounds nuw %struct.IDABMemRec, ptr %44, i32 0, i32 0
  %46 = load i32, ptr %45, align 8, !tbaa !76
  %47 = icmp eq i32 %43, %46
  br i1 %47, label %48, label %49

48:                                               ; preds = %42
  br label %53

49:                                               ; preds = %42
  %50 = load ptr, ptr %10, align 8, !tbaa !75
  %51 = getelementptr inbounds nuw %struct.IDABMemRec, ptr %50, i32 0, i32 17
  %52 = load ptr, ptr %51, align 8, !tbaa !78
  store ptr %52, ptr %10, align 8, !tbaa !75
  br label %39, !llvm.loop !83

53:                                               ; preds = %48, %39
  %54 = load ptr, ptr %10, align 8, !tbaa !75
  %55 = getelementptr inbounds nuw %struct.IDABMemRec, ptr %54, i32 0, i32 2
  %56 = load ptr, ptr %55, align 8, !tbaa !80
  store ptr %56, ptr %11, align 8, !tbaa !3
  %57 = load ptr, ptr %11, align 8, !tbaa !3
  %58 = load i32, ptr %7, align 4, !tbaa !7
  %59 = call i32 @IDASpilsSetMaxl(ptr noundef %57, i32 noundef %58)
  store i32 %59, ptr %4, align 4
  store i32 1, ptr %12, align 4
  br label %60

60:                                               ; preds = %53, %33, %22, %15
  call void @llvm.lifetime.end.p0(i64 8, ptr %11) #5
  call void @llvm.lifetime.end.p0(i64 8, ptr %10) #5
  call void @llvm.lifetime.end.p0(i64 8, ptr %9) #5
  call void @llvm.lifetime.end.p0(i64 8, ptr %8) #5
  %61 = load i32, ptr %4, align 4
  ret i32 %61
}